target datalayout = "e-m:e-p270:32:32-p271:32:32-p272:64:64-i64:64-i128:128-f80:128-n8:16:32:64-S128"
target triple = "x86_64-pc-linux-gnu"

%struct.template_gen_ctx = type { ptr, i32 }

@.str.3 = private unnamed_addr constant [62 x i8] c"../openssl/providers/implementations/keymgmt/template_kmgmt.c\00", align 1
@.str.28 = private unnamed_addr constant [24 x i8] c"gen init called for %p\0A\00", align 1
@.str.29 = private unnamed_addr constant [21 x i8] c"gen init returns %p\0A\00", align 1
@.str.30 = private unnamed_addr constant [36 x i8] c"empty gen_set params called for %p\0A\00", align 1

; Function Attrs: nounwind uwtable
define internal i32 @template_gen_set_params(ptr noundef %0, ptr noundef %1) #0 {
  %3 = alloca i32, align 4
  %4 = alloca ptr, align 8
  %5 = alloca ptr, align 8
  %6 = alloca ptr, align 8
  %7 = alloca i32, align 4
  store ptr %0, ptr %4, align 8, !tbaa !3
  store ptr %1, ptr %5, align 8, !tbaa !7
  call void @llvm.lifetime.start.p0(i64 8, ptr %6) #4
  %8 = load ptr, ptr %4, align 8, !tbaa !3
  store ptr %8, ptr %6, align 8, !tbaa !13
  %9 = load ptr, ptr %6, align 8, !tbaa !13
  %10 = icmp eq ptr %9, null
  br i1 %10, label %11, label %12

11:                                               ; preds = %2
  store i32 0, ptr %3, align 4
  store i32 1, ptr %7, align 4
  br label %14

12:                                               ; preds = %2
  %13 = load ptr, ptr %6, align 8, !tbaa !13
  call void (ptr, ...) @debug_print(ptr noundef @.str.30, ptr noundef %13)
  store i32 1, ptr %3, align 4
  store i32 1, ptr %7, align 4
  br label %14

14:                                               ; preds = %12, %11
  call void @llvm.lifetime.end.p0(i64 8, ptr %6) #4
  %15 = load i32, ptr %3, align 4
  ret i32 %15
}

; Function Attrs: nounwind uwtable
define internal void @debug_print(ptr noundef %0, ...) #0 {
  %2 = alloca ptr, align 8
  store ptr %0, ptr %2, align 8, !tbaa !18
  ret void
}

; Function Attrs: nounwind uwtable
define internal ptr @template_gen_init(ptr noundef %0, i32 noundef %1, ptr noundef %2) #0 {
  %4 = alloca ptr, align 8
  %5 = alloca ptr, align 8
  %6 = alloca i32, align 4
  %7 = alloca ptr, align 8
  %8 = alloca ptr, align 8
  %9 = alloca i32, align 4
  store ptr %0, ptr %5, align 8, !tbaa !3
  store i32 %1, ptr %6, align 4, !tbaa !9
  store ptr %2, ptr %7, align 8, !tbaa !7
  call void @llvm.lifetime.start.p0(i64 8, ptr %8) #4
  store ptr null, ptr %8, align 8, !tbaa !13
  %10 = load ptr, ptr %5, align 8, !tbaa !3
  call void (ptr, ...) @debug_print(ptr noundef @.str.28, ptr noundef %10)
  %11 = call i32 @ossl_prov_is_running()
  %12 = icmp ne i32 %11, 0
  br i1 %12, label %14, label %13

13:                                               ; preds = %3
  store ptr null, ptr %4, align 8
  store i32 1, ptr %9, align 4
  br label %34

14:                                               ; preds = %3
  %15 = call noalias ptr @CRYPTO_zalloc(i64 noundef 16, ptr noundef @.str.3, i32 noundef 345)
  store ptr %15, ptr %8, align 8, !tbaa !13
  %16 = icmp ne ptr %15, null
  br i1 %16, label %17, label %24

17:                                               ; preds = %14
  %18 = load ptr, ptr %5, align 8, !tbaa !3
  %19 = load ptr, ptr %8, align 8, !tbaa !13
  %20 = getelementptr inbounds nuw %struct.template_gen_ctx, ptr %19, i32 0, i32 0
  store ptr %18, ptr %20, align 8, !tbaa !15
  %21 = load i32, ptr %6, align 4, !tbaa !9
  %22 = load ptr, ptr %8, align 8, !tbaa !13
  %23 = getelementptr inbounds nuw %struct.template_gen_ctx, ptr %22, i32 0, i32 1
  store i32 %21, ptr %23, align 8, !tbaa !17
  br label %24

24:                                               ; preds = %17, %14
  %25 = load ptr, ptr %8, align 8, !tbaa !13
  %26 = load ptr, ptr %7, align 8, !tbaa !7
  %27 = call i32 @template_gen_set_params(ptr noundef %25, ptr noundef %26)
  %28 = icmp ne i32 %27, 0
  br i1 %28, label %31, label %29

29:                                               ; preds = %24
  %30 = load ptr, ptr %8, align 8, !tbaa !13
  call void @CRYPTO_free(ptr noundef %30, ptr noundef @.str.3, i32 noundef 350)
  store ptr null, ptr %8, align 8, !tbaa !13
  br label %31

31:                                               ; preds = %29, %24
  %32 = load ptr, ptr %8, align 8, !tbaa !13
  call void (ptr, ...) @debug_print(ptr noundef @.str.29, ptr noundef %32)
  %33 = load ptr, ptr %8, align 8, !tbaa !13
  store ptr %33, ptr %4, align 8
  store i32 1, ptr %9, align 4
  br label %34

34:                                               ; preds = %31, %13
  call void @llvm.lifetime.end.p0(i64 8, ptr %8) #4
  %35 = load ptr, ptr %4, align 8
  ret ptr %35
}