; Function Attrs: nounwind uwtable
define internal noalias ptr @template_gen_init(ptr noundef %0, i32 noundef %1, ptr readnone captures(none) %2) #0 {
  %4 = tail call i32 @ossl_prov_is_running() #3
  %.not = icmp eq i32 %4, 0
  br i1 %.not, label %9, label %5

5:                                                ; preds = %3
  %6 = tail call noalias ptr @CRYPTO_zalloc(i64 noundef 16, ptr noundef nonnull @.str.3, i32 noundef 345) #3
  %.not14 = icmp eq ptr %6, null
  br i1 %.not14, label %8, label %.split

.split:                                           ; preds = %5
  store ptr %0, ptr %6, align 8, !tbaa !11
  %7 = getelementptr inbounds nuw i8, ptr %6, i64 8
  store i32 %1, ptr %7, align 8, !tbaa !13
  br label %9

8:                                                ; preds = %5
  tail call void @CRYPTO_free(ptr noundef null, ptr noundef nonnull @.str.3, i32 noundef 350) #3
  br label %9

9:                                                ; preds = %8, %.split, %3
  %.010 = phi ptr [ null, %3 ], [ %6, %.split ], [ null, %8 ]
  ret ptr %.010
}